; Function Attrs: null_pointer_is_valid sspstrong uwtable
define internal fastcc void @dissect_status(ptr noundef %0, ptr noundef %1) unnamed_addr #0 {
  %3 = load i32, ptr @hf_pn532_status_nad_present, align 4
  %4 = tail call ptr @proto_tree_add_item(ptr noundef %0, i32 noundef %3, ptr noundef %1, i32 noundef 2, i32 noundef 1, i32 noundef 0)
  %5 = load i32, ptr @hf_pn532_status_mi, align 4
  %6 = tail call ptr @proto_tree_add_item(ptr noundef %0, i32 noundef %5, ptr noundef %1, i32 noundef 2, i32 noundef 1, i32 noundef 0)
  %7 = load i32, ptr @hf_pn532_status_error_code, align 4
  %8 = tail call ptr @proto_tree_add_item(ptr noundef %0, i32 noundef %7, ptr noundef %1, i32 noundef 2, i32 noundef 1, i32 noundef 0)
  ret void
}